target datalayout = "e-m:e-p270:32:32-p271:32:32-p272:64:64-i64:64-i128:128-f80:128-n8:16:32:64-S128"
target triple = "x86_64-pc-linux-gnu"

%class.Phase = type { i32, ptr }
%class.JVMState = type { ptr, i32, i32, i32, i32, i32, i32, i32, i32, i32, ptr, ptr }
%class.SafePointNode = type <{ %class.MultiNode.base, [4 x i8], ptr, ptr, %class.ReplacedNodes, i8, [7 x i8] }>
%class.MultiNode.base = type { %class.Node.base }
%class.Node.base = type <{ ptr, ptr, ptr, i32, i32, i32, i32, i32, i32, i32 }>
%class.ReplacedNodes = type { ptr }
%class.GraphKit = type <{ ptr, %class.Phase, ptr, ptr, ptr, ptr, i32, [4 x i8], ptr, ptr, i32, [4 x i8] }>
%class.Node = type <{ ptr, ptr, ptr, i32, i32, i32, i32, i32, i32, i32, [4 x i8] }>
%class.Type = type <{ ptr, ptr, i32, [4 x i8] }>

@_ZN7TypePtr6BOTTOME = external global ptr, align 8
@.str.78 = private unnamed_addr constant [3 x i8] c"[I\00", align 1
@.str.83 = private unnamed_addr constant [22 x i8] c"aescrypt_encryptBlock\00", align 1
@.str.84 = private unnamed_addr constant [22 x i8] c"aescrypt_decryptBlock\00", align 1
@.str.99 = private unnamed_addr constant [2 x i8] c"K\00", align 1
@_ZN12StubRoutines22_aescrypt_encryptBlockE = external global ptr, align 8
@_ZN12StubRoutines22_aescrypt_decryptBlockE = external global ptr, align 8

; Function Attrs: mustprogress nounwind uwtable
define linkonce_odr hidden noundef ptr @_ZNK4Node2inEj(ptr noundef nonnull align 8 dereferenceable(52) %0, i32 noundef %1) #1 comdat align 2 {
  %3 = alloca ptr, align 8
  %4 = alloca i32, align 4
  store ptr %0, ptr %3, align 8
  store i32 %1, ptr %4, align 4
  %5 = load ptr, ptr %3, align 8
  %6 = getelementptr inbounds %class.Node, ptr %5, i32 0, i32 1
  %7 = load ptr, ptr %6, align 8
  %8 = load i32, ptr %4, align 4
  %9 = zext i32 %8 to i64
  %10 = getelementptr inbounds ptr, ptr %7, i64 %9
  %11 = load ptr, ptr %10, align 8
  ret ptr %11
}

; Function Attrs: mustprogress nounwind uwtable
define linkonce_odr hidden void @_ZNK13SafePointNode12verify_inputEP8JVMStatej(ptr noundef nonnull align 8 dereferenceable(81) %0, ptr noundef %1, i32 noundef %2) #1 comdat align 2 {
  %4 = alloca ptr, align 8
  %5 = alloca ptr, align 8
  %6 = alloca i32, align 4
  %7 = alloca ptr, align 8
  store ptr %0, ptr %4, align 8
  store ptr %1, ptr %5, align 8
  store i32 %2, ptr %6, align 4
  %8 = load ptr, ptr %4, align 8
  %9 = load i32, ptr %6, align 4
  %10 = call noundef ptr @_ZNK4Node2inEj(ptr noundef nonnull align 8 dereferenceable(52) %8, i32 noundef %9)
  store ptr %10, ptr %7, align 8
  ret void
}

; Function Attrs: mustprogress nounwind uwtable
define linkonce_odr hidden noundef i32 @_ZNK8JVMState6argoffEv(ptr noundef nonnull align 8 dereferenceable(64) %0) #1 comdat align 2 {
  %2 = alloca ptr, align 8
  store ptr %0, ptr %2, align 8
  %3 = load ptr, ptr %2, align 8
  %4 = getelementptr inbounds %class.JVMState, ptr %3, i32 0, i32 3
  %5 = load i32, ptr %4, align 8
  %6 = getelementptr inbounds %class.JVMState, ptr %3, i32 0, i32 7
  %7 = load i32, ptr %6, align 8
  %8 = add i32 %5, %7
  ret i32 %8
}

; Function Attrs: mustprogress nounwind uwtable
define linkonce_odr hidden noundef ptr @_ZNK8GraphKit6intconEi(ptr noundef nonnull align 8 dereferenceable(84) %0, i32 noundef %1) #1 comdat align 2 {
  %3 = alloca ptr, align 8
  %4 = alloca i32, align 4
  store ptr %0, ptr %3, align 8
  store i32 %1, ptr %4, align 4
  %5 = load ptr, ptr %3, align 8
  %6 = getelementptr inbounds %class.GraphKit, ptr %5, i32 0, i32 3
  %7 = load ptr, ptr %6, align 8
  %8 = load i32, ptr %4, align 4
  %9 = call noundef ptr @_ZN11PhaseValues6intconEi(ptr noundef nonnull align 8 dereferenceable(2400) %7, i32 noundef %8)
  ret ptr %9
}

; Function Attrs: mustprogress nounwind uwtable
define linkonce_odr hidden noundef ptr @_ZNK13SafePointNode8argumentEP8JVMStatej(ptr noundef nonnull align 8 dereferenceable(81) %0, ptr noundef %1, i32 noundef %2) #1 comdat align 2 {
  %4 = alloca ptr, align 8
  %5 = alloca ptr, align 8
  %6 = alloca i32, align 4
  store ptr %0, ptr %4, align 8
  store ptr %1, ptr %5, align 8
  store i32 %2, ptr %6, align 4
  %7 = load ptr, ptr %4, align 8
  %8 = load ptr, ptr %5, align 8
  %9 = load ptr, ptr %5, align 8
  %10 = call noundef i32 @_ZNK8JVMState6argoffEv(ptr noundef nonnull align 8 dereferenceable(64) %9)
  %11 = load i32, ptr %6, align 4
  %12 = add i32 %10, %11
  call void @_ZNK13SafePointNode12verify_inputEP8JVMStatej(ptr noundef nonnull align 8 dereferenceable(81) %7, ptr noundef %8, i32 noundef %12)
  %13 = load ptr, ptr %5, align 8
  %14 = call noundef i32 @_ZNK8JVMState6argoffEv(ptr noundef nonnull align 8 dereferenceable(64) %13)
  %15 = load i32, ptr %6, align 4
  %16 = add i32 %14, %15
  %17 = call noundef ptr @_ZNK4Node2inEj(ptr noundef nonnull align 8 dereferenceable(52) %7, i32 noundef %16)
  ret ptr %17
}

; Function Attrs: mustprogress nounwind uwtable
define linkonce_odr hidden noundef ptr @_ZNK8GraphKit12map_not_nullEv(ptr noundef nonnull align 8 dereferenceable(84) %0) #1 comdat align 2 {
  %2 = alloca ptr, align 8
  store ptr %0, ptr %2, align 8
  %3 = load ptr, ptr %2, align 8
  %4 = getelementptr inbounds %class.GraphKit, ptr %3, i32 0, i32 4
  %5 = load ptr, ptr %4, align 8
  ret ptr %5
}

; Function Attrs: mustprogress nounwind uwtable
define hidden noundef ptr @_ZN14LibraryCallKit34get_key_start_from_aescrypt_objectEP4Node(ptr noundef nonnull align 8 dereferenceable(108) %0, ptr noundef %1) #1 align 2 {
  %3 = alloca ptr, align 8
  %4 = alloca ptr, align 8
  %5 = alloca ptr, align 8
  %6 = alloca ptr, align 8
  %7 = alloca ptr, align 8
  store ptr %0, ptr %4, align 8
  store ptr %1, ptr %5, align 8
  %8 = load ptr, ptr %4, align 8
  %9 = load ptr, ptr %5, align 8
  %10 = call noundef ptr @_ZN14LibraryCallKit22load_field_from_objectEP4NodePKcS3_mbP15ciInstanceKlass(ptr noundef nonnull align 8 dereferenceable(108) %8, ptr noundef %9, ptr noundef @.str.99, ptr noundef @.str.78, i64 noundef 262144, i1 noundef zeroext false, ptr noundef null)
  store ptr %10, ptr %6, align 8
  %11 = load ptr, ptr %6, align 8
  %12 = icmp eq ptr %11, null
  br i1 %12, label %13, label %14

13:                                               ; preds = %2
  store ptr null, ptr %3, align 8
  br label %19

14:                                               ; preds = %2
  %15 = load ptr, ptr %6, align 8
  %16 = call noundef ptr @_ZNK8GraphKit6intconEi(ptr noundef nonnull align 8 dereferenceable(84) %8, i32 noundef 0)
  %17 = call noundef ptr @_ZN8GraphKit21array_element_addressEP4NodeS1_9BasicTypePK7TypeIntS1_(ptr noundef nonnull align 8 dereferenceable(84) %8, ptr noundef %15, ptr noundef %16, i8 noundef zeroext 10, ptr noundef null, ptr noundef null)
  store ptr %17, ptr %7, align 8
  %18 = load ptr, ptr %7, align 8
  store ptr %18, ptr %3, align 8
  br label %19

19:                                               ; preds = %14, %13
  %20 = load ptr, ptr %3, align 8
  ret ptr %20
}

; Function Attrs: mustprogress nounwind uwtable
define linkonce_odr hidden noundef ptr @_ZNK4Type10isa_aryptrEv(ptr noundef nonnull align 8 dereferenceable(20) %0) #1 comdat align 2 {
  %2 = alloca ptr, align 8
  store ptr %0, ptr %2, align 8
  %3 = load ptr, ptr %2, align 8
  %4 = getelementptr inbounds %class.Type, ptr %3, i32 0, i32 2
  %5 = load i32, ptr %4, align 8
  %6 = icmp eq i32 %5, 22
  br i1 %6, label %7, label %8

7:                                                ; preds = %1
  br label %9

8:                                                ; preds = %1
  br label %9

9:                                                ; preds = %8, %7
  %10 = phi ptr [ %3, %7 ], [ null, %8 ]
  ret ptr %10
}

; Function Attrs: mustprogress nounwind uwtable
define linkonce_odr hidden noundef ptr @_ZNK8GraphKit8argumentEj(ptr noundef nonnull align 8 dereferenceable(84) %0, i32 noundef %1) #1 comdat align 2 {
  %3 = alloca ptr, align 8
  %4 = alloca i32, align 4
  store ptr %0, ptr %3, align 8
  store i32 %1, ptr %4, align 4
  %5 = load ptr, ptr %3, align 8
  %6 = call noundef ptr @_ZNK8GraphKit12map_not_nullEv(ptr noundef nonnull align 8 dereferenceable(84) %5)
  %7 = getelementptr inbounds %class.GraphKit, ptr %5, i32 0, i32 4
  %8 = load ptr, ptr %7, align 8
  %9 = getelementptr inbounds %class.GraphKit, ptr %5, i32 0, i32 4
  %10 = load ptr, ptr %9, align 8
  %11 = getelementptr inbounds %class.SafePointNode, ptr %10, i32 0, i32 2
  %12 = load ptr, ptr %11, align 8
  %13 = load i32, ptr %4, align 4
  %14 = call noundef ptr @_ZNK13SafePointNode8argumentEP8JVMStatej(ptr noundef nonnull align 8 dereferenceable(81) %8, ptr noundef %12, i32 noundef %13)
  ret ptr %14
}

; Function Attrs: mustprogress nounwind uwtable
define linkonce_odr hidden noundef ptr @_ZN12StubRoutines21aescrypt_decryptBlockEv() #1 comdat align 2 {
  %1 = load ptr, ptr @_ZN12StubRoutines22_aescrypt_decryptBlockE, align 8
  ret ptr %1
}

; Function Attrs: mustprogress nounwind uwtable
define linkonce_odr hidden noundef ptr @_ZN12StubRoutines21aescrypt_encryptBlockEv() #1 comdat align 2 {
  %1 = load ptr, ptr @_ZN12StubRoutines22_aescrypt_encryptBlockE, align 8
  ret ptr %1
}

; Function Attrs: mustprogress nounwind uwtable
define hidden noundef zeroext i1 @_ZN14LibraryCallKit21inline_aescrypt_BlockE13vmIntrinsicID(ptr noundef nonnull align 8 dereferenceable(108) %0, i32 noundef %1) #1 align 2 {
  %3 = alloca i1, align 1
  %4 = alloca ptr, align 8
  %5 = alloca i32, align 4
  %6 = alloca ptr, align 8
  %7 = alloca ptr, align 8
  %8 = alloca ptr, align 8
  %9 = alloca ptr, align 8
  %10 = alloca ptr, align 8
  %11 = alloca ptr, align 8
  %12 = alloca ptr, align 8
  %13 = alloca ptr, align 8
  %14 = alloca ptr, align 8
  %15 = alloca ptr, align 8
  %16 = alloca ptr, align 8
  %17 = alloca ptr, align 8
  store ptr %0, ptr %4, align 8
  store i32 %1, ptr %5, align 4
  %18 = load ptr, ptr %4, align 8
  store ptr null, ptr %6, align 8
  %19 = load i32, ptr %5, align 4
  switch i32 %19, label %24 [
    i32 169, label %20
    i32 170, label %22
  ]

20:                                               ; preds = %2
  %21 = call noundef ptr @_ZN12StubRoutines21aescrypt_encryptBlockEv()
  store ptr %21, ptr %6, align 8
  store ptr @.str.83, ptr %7, align 8
  br label %25

22:                                               ; preds = %2
  %23 = call noundef ptr @_ZN12StubRoutines21aescrypt_decryptBlockEv()
  store ptr %23, ptr %6, align 8
  store ptr @.str.84, ptr %7, align 8
  br label %25

24:                                               ; preds = %2
  br label %25

25:                                               ; preds = %24, %22, %20
  %26 = load ptr, ptr %6, align 8
  %27 = icmp eq ptr %26, null
  br i1 %27, label %28, label %29

28:                                               ; preds = %25
  store i1 false, ptr %3, align 1
  br label %84

29:                                               ; preds = %25
  %30 = call noundef ptr @_ZNK8GraphKit8argumentEj(ptr noundef nonnull align 8 dereferenceable(84) %18, i32 noundef 0)
  store ptr %30, ptr %8, align 8
  %31 = call noundef ptr @_ZNK8GraphKit8argumentEj(ptr noundef nonnull align 8 dereferenceable(84) %18, i32 noundef 1)
  store ptr %31, ptr %9, align 8
  %32 = call noundef ptr @_ZNK8GraphKit8argumentEj(ptr noundef nonnull align 8 dereferenceable(84) %18, i32 noundef 2)
  store ptr %32, ptr %10, align 8
  %33 = call noundef ptr @_ZNK8GraphKit8argumentEj(ptr noundef nonnull align 8 dereferenceable(84) %18, i32 noundef 3)
  store ptr %33, ptr %11, align 8
  %34 = call noundef ptr @_ZNK8GraphKit8argumentEj(ptr noundef nonnull align 8 dereferenceable(84) %18, i32 noundef 4)
  store ptr %34, ptr %12, align 8
  %35 = load ptr, ptr %9, align 8
  %36 = call noundef ptr @_ZN8GraphKit16must_be_not_nullEP4Nodeb(ptr noundef nonnull align 8 dereferenceable(84) %18, ptr noundef %35, i1 noundef zeroext true)
  store ptr %36, ptr %9, align 8
  %37 = load ptr, ptr %11, align 8
  %38 = call noundef ptr @_ZN8GraphKit16must_be_not_nullEP4Nodeb(ptr noundef nonnull align 8 dereferenceable(84) %18, ptr noundef %37, i1 noundef zeroext true)
  store ptr %38, ptr %11, align 8
  %39 = load ptr, ptr %9, align 8
  %40 = getelementptr inbounds %class.GraphKit, ptr %18, i32 0, i32 3
  %41 = load ptr, ptr %40, align 8
  %42 = load ptr, ptr %39, align 8
  %43 = getelementptr inbounds ptr, ptr %42, i64 8
  %44 = load ptr, ptr %43, align 8
  %45 = call noundef ptr %44(ptr noundef nonnull align 8 dereferenceable(52) %39, ptr noundef %41)
  %46 = call noundef ptr @_ZNK4Type10isa_aryptrEv(ptr noundef nonnull align 8 dereferenceable(20) %45)
  store ptr %46, ptr %13, align 8
  %47 = load ptr, ptr %11, align 8
  %48 = getelementptr inbounds %class.GraphKit, ptr %18, i32 0, i32 3
  %49 = load ptr, ptr %48, align 8
  %50 = load ptr, ptr %47, align 8
  %51 = getelementptr inbounds ptr, ptr %50, i64 8
  %52 = load ptr, ptr %51, align 8
  %53 = call noundef ptr %52(ptr noundef nonnull align 8 dereferenceable(52) %47, ptr noundef %49)
  %54 = call noundef ptr @_ZNK4Type10isa_aryptrEv(ptr noundef nonnull align 8 dereferenceable(20) %53)
  store ptr %54, ptr %14, align 8
  %55 = load ptr, ptr %9, align 8
  store ptr %55, ptr %15, align 8
  %56 = load ptr, ptr %11, align 8
  store ptr %56, ptr %16, align 8
  %57 = load ptr, ptr %10, align 8
  %58 = icmp ne ptr %57, null
  br i1 %58, label %62, label %59

59:                                               ; preds = %29
  %60 = load ptr, ptr %12, align 8
  %61 = icmp ne ptr %60, null
  br i1 %61, label %62, label %69

62:                                               ; preds = %59, %29
  %63 = load ptr, ptr %9, align 8
  %64 = load ptr, ptr %10, align 8
  %65 = call noundef ptr @_ZN8GraphKit21array_element_addressEP4NodeS1_9BasicTypePK7TypeIntS1_(ptr noundef nonnull align 8 dereferenceable(84) %18, ptr noundef %63, ptr noundef %64, i8 noundef zeroext 8, ptr noundef null, ptr noundef null)
  store ptr %65, ptr %15, align 8
  %66 = load ptr, ptr %11, align 8
  %67 = load ptr, ptr %12, align 8
  %68 = call noundef ptr @_ZN8GraphKit21array_element_addressEP4NodeS1_9BasicTypePK7TypeIntS1_(ptr noundef nonnull align 8 dereferenceable(84) %18, ptr noundef %66, ptr noundef %67, i8 noundef zeroext 8, ptr noundef null, ptr noundef null)
  store ptr %68, ptr %16, align 8
  br label %69

69:                                               ; preds = %62, %59
  %70 = load ptr, ptr %8, align 8
  %71 = call noundef ptr @_ZN14LibraryCallKit34get_key_start_from_aescrypt_objectEP4Node(ptr noundef nonnull align 8 dereferenceable(108) %18, ptr noundef %70)
  store ptr %71, ptr %17, align 8
  %72 = load ptr, ptr %17, align 8
  %73 = icmp eq ptr %72, null
  br i1 %73, label %74, label %75

74:                                               ; preds = %69
  store i1 false, ptr %3, align 1
  br label %84

75:                                               ; preds = %69
  %76 = call noundef ptr @_ZN11OptoRuntime19aescrypt_block_TypeEv()
  %77 = load ptr, ptr %6, align 8
  %78 = load ptr, ptr %7, align 8
  %79 = load ptr, ptr @_ZN7TypePtr6BOTTOME, align 8
  %80 = load ptr, ptr %15, align 8
  %81 = load ptr, ptr %16, align 8
  %82 = load ptr, ptr %17, align 8
  %83 = call noundef ptr @_ZN8GraphKit17make_runtime_callEiPK8TypeFuncPhPKcPK7TypePtrP4NodeSA_SA_SA_SA_SA_SA_SA_(ptr noundef nonnull align 8 dereferenceable(84) %18, i32 noundef 1, ptr noundef %76, ptr noundef %77, ptr noundef %78, ptr noundef %79, ptr noundef %80, ptr noundef %81, ptr noundef %82, ptr noundef null, ptr noundef null, ptr noundef null, ptr noundef null, ptr noundef null)
  store i1 true, ptr %3, align 1
  br label %84

84:                                               ; preds = %75, %74, %28
  %85 = load i1, ptr %3, align 1
  ret i1 %85
}