; Function Attrs: mustprogress nounwind uwtable
define hidden noundef zeroext i1 @_ZN14LibraryCallKit21inline_aescrypt_BlockE13vmIntrinsicID(ptr noundef nonnull align 8 dereferenceable(108) %0, i32 noundef %1) local_unnamed_addr #0 align 2 {
  switch i32 %1, label %.thread [
    i32 169, label %4
    i32 170, label %3
  ]

3:                                                ; preds = %2
  br label %4

4:                                                ; preds = %2, %3
  %.026 = phi ptr [ @.str.84, %3 ], [ @.str.83, %2 ]
  %.025.in = phi ptr [ @_ZN12StubRoutines22_aescrypt_decryptBlockE, %3 ], [ @_ZN12StubRoutines22_aescrypt_encryptBlockE, %2 ]
  %.025 = load ptr, ptr %.025.in, align 8
  %5 = icmp eq ptr %.025, null
  br i1 %5, label %.thread, label %6

6:                                                ; preds = %4
  %7 = getelementptr inbounds i8, ptr %0, i64 40
  %8 = load ptr, ptr %7, align 8
  %9 = getelementptr inbounds i8, ptr %8, i64 56
  %10 = load ptr, ptr %9, align 8
  %11 = getelementptr inbounds i8, ptr %10, i64 16
  %12 = load i32, ptr %11, align 8
  %13 = getelementptr inbounds i8, ptr %10, i64 32
  %14 = load i32, ptr %13, align 8
  %15 = add i32 %14, %12
  %16 = getelementptr inbounds i8, ptr %8, i64 8
  %17 = load ptr, ptr %16, align 8
  %18 = zext i32 %15 to i64
  %19 = getelementptr inbounds ptr, ptr %17, i64 %18
  %20 = load ptr, ptr %19, align 8
  %21 = add i32 %15, 1
  %22 = zext i32 %21 to i64
  %23 = getelementptr inbounds ptr, ptr %17, i64 %22
  %24 = load ptr, ptr %23, align 8
  %25 = add i32 %15, 2
  %26 = zext i32 %25 to i64
  %27 = getelementptr inbounds ptr, ptr %17, i64 %26
  %28 = load ptr, ptr %27, align 8
  %29 = add i32 %15, 3
  %30 = zext i32 %29 to i64
  %31 = getelementptr inbounds ptr, ptr %17, i64 %30
  %32 = load ptr, ptr %31, align 8
  %33 = add i32 %15, 4
  %34 = zext i32 %33 to i64
  %35 = getelementptr inbounds ptr, ptr %17, i64 %34
  %36 = load ptr, ptr %35, align 8
  %37 = tail call noundef ptr @_ZN8GraphKit16must_be_not_nullEP4Nodeb(ptr noundef nonnull align 8 dereferenceable(84) %0, ptr noundef %24, i1 noundef zeroext true) #13
  %38 = tail call noundef ptr @_ZN8GraphKit16must_be_not_nullEP4Nodeb(ptr noundef nonnull align 8 dereferenceable(84) %0, ptr noundef %32, i1 noundef zeroext true) #13
  %39 = getelementptr inbounds i8, ptr %0, i64 32
  %40 = load ptr, ptr %39, align 8
  %41 = load ptr, ptr %37, align 8
  %42 = getelementptr inbounds i8, ptr %41, i64 64
  %43 = load ptr, ptr %42, align 8
  %44 = tail call noundef ptr %43(ptr noundef nonnull align 8 dereferenceable(52) %37, ptr noundef %40) #13
  %45 = load ptr, ptr %39, align 8
  %46 = load ptr, ptr %38, align 8
  %47 = getelementptr inbounds i8, ptr %46, i64 64
  %48 = load ptr, ptr %47, align 8
  %49 = tail call noundef ptr %48(ptr noundef nonnull align 8 dereferenceable(52) %38, ptr noundef %45) #13
  %50 = icmp ne ptr %28, null
  %51 = icmp ne ptr %36, null
  %or.cond = or i1 %50, %51
  br i1 %or.cond, label %52, label %55

52:                                               ; preds = %6
  %53 = tail call noundef ptr @_ZN8GraphKit21array_element_addressEP4NodeS1_9BasicTypePK7TypeIntS1_(ptr noundef nonnull align 8 dereferenceable(84) %0, ptr noundef nonnull %37, ptr noundef %28, i8 noundef zeroext 8, ptr noundef null, ptr noundef null) #13
  %54 = tail call noundef ptr @_ZN8GraphKit21array_element_addressEP4NodeS1_9BasicTypePK7TypeIntS1_(ptr noundef nonnull align 8 dereferenceable(84) %0, ptr noundef nonnull %38, ptr noundef %36, i8 noundef zeroext 8, ptr noundef null, ptr noundef null) #13
  br label %55

55:                                               ; preds = %6, %52
  %.024 = phi ptr [ %53, %52 ], [ %37, %6 ]
  %.023 = phi ptr [ %54, %52 ], [ %38, %6 ]
  %56 = tail call noundef ptr @_ZN14LibraryCallKit22load_field_from_objectEP4NodePKcS3_mbP15ciInstanceKlass(ptr noundef nonnull align 8 dereferenceable(108) %0, ptr noundef %20, ptr noundef nonnull @.str.99, ptr noundef nonnull @.str.78, i64 noundef 262144, i1 noundef zeroext false, ptr noundef null)
  %57 = icmp eq ptr %56, null
  br i1 %57, label %.thread, label %_ZN14LibraryCallKit34get_key_start_from_aescrypt_objectEP4Node.exit

_ZN14LibraryCallKit34get_key_start_from_aescrypt_objectEP4Node.exit: ; preds = %55
  %58 = load ptr, ptr %39, align 8
  %59 = tail call noundef ptr @_ZN11PhaseValues6intconEi(ptr noundef nonnull align 8 dereferenceable(2400) %58, i32 noundef 0) #13
  %60 = tail call noundef ptr @_ZN8GraphKit21array_element_addressEP4NodeS1_9BasicTypePK7TypeIntS1_(ptr noundef nonnull align 8 dereferenceable(84) %0, ptr noundef nonnull %56, ptr noundef %59, i8 noundef zeroext 10, ptr noundef null, ptr noundef null) #13
  %61 = icmp eq ptr %60, null
  br i1 %61, label %.thread, label %62

62:                                               ; preds = %_ZN14LibraryCallKit34get_key_start_from_aescrypt_objectEP4Node.exit
  %63 = tail call noundef ptr @_ZN11OptoRuntime19aescrypt_block_TypeEv() #13
  %64 = load ptr, ptr @_ZN7TypePtr6BOTTOME, align 8
  %65 = tail call noundef ptr @_ZN8GraphKit17make_runtime_callEiPK8TypeFuncPhPKcPK7TypePtrP4NodeSA_SA_SA_SA_SA_SA_SA_(ptr noundef nonnull align 8 dereferenceable(84) %0, i32 noundef 1, ptr noundef %63, ptr noundef nonnull %.025, ptr noundef nonnull %.026, ptr noundef %64, ptr noundef %.024, ptr noundef %.023, ptr noundef nonnull %60, ptr noundef null, ptr noundef null, ptr noundef null, ptr noundef null, ptr noundef null) #13
  br label %.thread

.thread:                                          ; preds = %55, %2, %_ZN14LibraryCallKit34get_key_start_from_aescrypt_objectEP4Node.exit, %4, %62
  %.0 = phi i1 [ true, %62 ], [ false, %4 ], [ false, %_ZN14LibraryCallKit34get_key_start_from_aescrypt_objectEP4Node.exit ], [ false, %2 ], [ false, %55 ]
  ret i1 %.0
}